(dp1
S'dagger'
p2
I1
sS'gold'
p3
I33
sS'f_vil'
p4
I1
sS'fish'
p5
I0
sS'last_map'
p6
NsS'misc'
p7
(lp8
sS'xp'
p9
I160
sS'sheild_maxhp'
p10
I50
sS'eqp_weapon'
p11
S'dagger'
p12
sS'armour_hp'
p13
I0
sS'xp_next_level'
p14
I30
sS'b_h_vil'
p15
I1
sS'bow_arrow_first'
p16
I1
sS'max_hp'
p17
I250
sS'eqp_armour'
p18
NsS'pirate'
p19
I1
sS'talk_vil'
p20
(dp21
S'./maps/village2_out1.tmx'
p22
(lp23
I1
asS'./maps/spooky.tmx'
p24
(lp25
I0
asS'./maps/village2_inside.tmx'
p26
(lp27
I0
aI0
aI0
aI0
aI0
aI0
aI0
asS'./maps/village1.tmx'
p28
(lp29
I0
aI1
aI1
asS'./maps/ship.tmx'
p30
(lp31
I0
assS'pirate_map'
p32
I1
sS'hp'
p33
I250
sS'last_frm'
p34
I0
sS'spook'
p35
I0
sS'h_level'
p36
I4
sS'sheild_hp'
p37
I50
sS'sheild_first'
p38
I1
sS'arrow_count'
p39
I27
s.