(dp1
S'dagger'
p2
I0
sS'gold'
p3
I50
sS'f_vil'
p4
I0
sS'fish'
p5
I0
sS'last_map'
p6
NsS'misc'
p7
(lp8
sS'xp'
p9
I0
sS'sheild_maxhp'
p10
I50
sS'eqp_weapon'
p11
NsS'armour_hp'
p12
I0
sS'xp_next_level'
p13
I30
sS'b_h_vil'
p14
I0
sS'talk_vil'
p15
(dp16
S'./maps/village2_out1.tmx'
p17
(lp18
I0
asS'./maps/village1.tmx'
p19
(lp20
I0
aI0
aI0
asS'./maps/village2_inside.tmx'
p21
(lp22
I0
aI0
aI0
aI0
aI0
aI0
aI0
asS'./maps/spooky.tmx'
p23
(lp24
I0
asS'./maps/ship.tmx'
p25
(lp26
I0
assS'max_hp'
p27
F100
sS'eqp_armour'
p28
NsS'pirate'
p29
I0
sS'bow_arrow_first'
p30
I0
sS'pirate_map'
p31
I0
sS'hp'
p32
F100
sS'last_frm'
p33
I0
sS'spook'
p34
I0
sS'h_level'
p35
I1
sS'sheild_hp'
p36
I0
sS'flagtreasure'
p37
(lp38
I0
aI0
aI0
aI0
aI0
aI0
aI0
aI0
aI0
aI0
asS'save'
p39
I0
sS'pirate_vil'
p40
I0
sS'sheild_first'
p41
I0
sS'arrow_count'
p42
I0
sS'hotel_treasure'
p43
(lp44
I0
aI0
aI0
aI0
as.