(dp1
S'f_vil'
p2
I0
sS'dagger'
p3
I0
sS'rose'
p4
I0
sS'gold'
p5
I0
sS'sheild_hp'
p6
I0
sS'last_frm'
p7
I0
sS'hp'
p8
F100
sS'last_map'
p9
NsS'misc'
p10
(lp11
sS'boots'
p12
I0
sS'fish_rod'
p13
I0
sS'spook'
p14
I0
sS'h_level'
p15
I1
sS'xp'
p16
I0
sS'talk_vil'
p17
(dp18
S'./maps/village2_out1.tmx'
p19
(lp20
I0
asS'./maps/spooky.tmx'
p21
(lp22
I0
asS'./maps/village2_inside.tmx'
p23
(lp24
I0
aI0
aI0
aI0
aI0
aI0
aI0
asS'./maps/village1.tmx'
p25
(lp26
I0
aI0
aI0
asS'./maps/ship.tmx'
p27
(lp28
I0
assS'flagtreasure'
p29
(lp30
I0
aI0
aI0
aI0
aI0
aI0
aI0
aI0
aI0
aI0
asS'hotel_treasure'
p31
(lp32
I0
aI0
aI0
aI0
asS'eqp_armour'
p33
NsS'pirate_map'
p34
I0
sS'sheild_maxhp'
p35
I50
sS'locket'
p36
I0
sS'eqp_weapon'
p37
NsS'pirate_vil'
p38
I0
sS'lamp'
p39
I0
sS'book'
p40
I0
sS'sheild_first'
p41
I0
sS'bow_arrow_first'
p42
I0
sS'max_hp'
p43
F100
sS'arrow_count'
p44
I0
sS'b_h_vil'
p45
I0
sS'save'
p46
I0
sS'pirate'
p47
I0
s.