(dp1
S'dagger'
p2
I1
sS'gold'
p3
I5
sS'f_vil'
p4
I0
sS'last_map'
p5
NsS'misc'
p6
(lp7
S'boots'
p8
aI30
aS'rose'
p9
aI10
aS'lamp'
p10
aI40
asS'boots'
p11
I1
sS'xp'
p12
I50
sS'sheild_maxhp'
p13
I50
sS'rose'
p14
I1
sS'eqp_weapon'
p15
S'dagger'
p16
sS'lamp'
p17
I1
sS'book'
p18
I0
sS'b_h_vil'
p19
I1
sS'bow_arrow_first'
p20
I1
sS'max_hp'
p21
I150
sS'locket'
p22
I0
sS'eqp_armour'
p23
S'nrml'
p24
sS'pirate'
p25
I1
sS'talk_vil'
p26
(dp27
S'./maps/village2_out1.tmx'
p28
(lp29
I0
asS'./maps/spooky.tmx'
p30
(lp31
I1
asS'./maps/village2_inside.tmx'
p32
(lp33
I0
aI0
aI1
aI0
aI0
aI0
aI0
asS'./maps/village1.tmx'
p34
(lp35
I0
aI1
aI1
asS'./maps/ship.tmx'
p36
(lp37
I1
assS'pirate_map'
p38
I1
sS'hp'
p39
I150
sS'last_frm'
p40
I0
sS'fish_rod'
p41
I0
sS'spook'
p42
I1
sS'h_level'
p43
I2
sS'sheild_hp'
p44
F14
sS'flagtreasure'
p45
(lp46
I0
aI0
aI0
aI0
aI0
aI0
aI0
aI0
aI0
aI0
asS'save'
p47
I0
sS'pirate_vil'
p48
I1
sS'sheild_first'
p49
I1
sS'arrow_count'
p50
I17
sS'hotel_treasure'
p51
(lp52
I0
aI0
aI0
aI0
as.