(dp1
S'dagger'
p2
I0
sS'gold'
p3
I0
sS'f_vil'
p4
I0
sS'last_map'
p5
NsS'misc'
p6
(lp7
sS'boots'
p8
I0
sS'xp'
p9
I0
sS'sheild_maxhp'
p10
I50
sS'rose'
p11
I0
sS'eqp_weapon'
p12
NsS'lamp'
p13
I0
sS'book'
p14
I0
sS'b_h_vil'
p15
I0
sS'talk_vil'
p16
(dp17
S'./maps/village2_out1.tmx'
p18
(lp19
I0
asS'./maps/village1.tmx'
p20
(lp21
I0
aI0
aI0
asS'./maps/village2_inside.tmx'
p22
(lp23
I0
aI0
aI0
aI0
aI0
aI0
aI0
asS'./maps/spooky.tmx'
p24
(lp25
I0
asS'./maps/ship.tmx'
p26
(lp27
I0
assS'max_hp'
p28
F100
sS'sheild_first'
p29
I0
sS'eqp_armour'
p30
NsS'pirate'
p31
I0
sS'bow_arrow_first'
p32
I0
sS'pirate_map'
p33
I0
sS'hp'
p34
F100
sS'last_frm'
p35
I0
sS'fish_rod'
p36
I0
sS'spook'
p37
I0
sS'h_level'
p38
I1
sS'sheild_hp'
p39
I0
sS'flagtreasure'
p40
(lp41
I0
aI0
aI0
aI0
aI0
aI0
aI0
aI0
aI0
aI0
asS'save'
p42
I0
sS'pirate_vil'
p43
I0
sS'locket'
p44
I0
sS'arrow_count'
p45
I0
sS'hotel_treasure'
p46
(lp47
I0
aI0
aI0
aI0
as.